; ModuleID = '19/3152.c'
source_filename = "19/3152.c"
target datalayout = "e-m:e-p270:32:32-p271:32:32-p272:64:64-i64:64-f80:128-n8:16:32:64-S128"
target triple = "x86_64-pc-linux-gnu"

@.str = private unnamed_addr constant [3 x i8] c"%c\00", align 1
@.str.1 = private unnamed_addr constant [3 x i8] c"%s\00", align 1

; Function Attrs: noinline nounwind uwtable
define dso_local i32 @main() #0 {
  %1 = alloca i32, align 4
  %2 = alloca [101 x i8], align 16
  %3 = alloca [101 x i8], align 16
  %4 = alloca [101 x i8], align 16
  %5 = alloca [101 x i8], align 16
  %6 = alloca [101 x i8], align 16
  %7 = alloca i32, align 4
  %8 = alloca i32, align 4
  %9 = alloca i32, align 4
  store i32 0, i32* %1, align 4
  %10 = bitcast [101 x i8]* %2 to i8*
  call void @llvm.memset.p0i8.i64(i8* align 16 %10, i8 0, i64 101, i1 false)
  %11 = bitcast [101 x i8]* %3 to i8*
  call void @llvm.memset.p0i8.i64(i8* align 16 %11, i8 0, i64 101, i1 false)
  %12 = bitcast [101 x i8]* %4 to i8*
  call void @llvm.memset.p0i8.i64(i8* align 16 %12, i8 0, i64 101, i1 false)
  %13 = bitcast [101 x i8]* %5 to i8*
  call void @llvm.memset.p0i8.i64(i8* align 16 %13, i8 0, i64 101, i1 false)
  %14 = bitcast [101 x i8]* %6 to i8*
  call void @llvm.memset.p0i8.i64(i8* align 16 %14, i8 0, i64 101, i1 false)
  %15 = getelementptr inbounds [101 x i8], [101 x i8]* %2, i64 0, i64 0
  %16 = call i32 (i8*, ...) bitcast (i32 (...)* @gets to i32 (i8*, ...)*)(i8* %15)
  %17 = getelementptr inbounds [101 x i8], [101 x i8]* %3, i64 0, i64 0
  %18 = call i32 (i8*, ...) bitcast (i32 (...)* @gets to i32 (i8*, ...)*)(i8* %17)
  %19 = getelementptr inbounds [101 x i8], [101 x i8]* %4, i64 0, i64 0
  %20 = call i32 (i8*, ...) bitcast (i32 (...)* @gets to i32 (i8*, ...)*)(i8* %19)
  store i32 0, i32* %7, align 4
  br label %21

21:                                               ; preds = %100, %0
  %22 = load i32, i32* %7, align 4
  %23 = sext i32 %22 to i64
  %24 = getelementptr inbounds [101 x i8], [101 x i8]* %2, i64 0, i64 0
  %25 = call i64 @strlen(i8* %24) #4
  %26 = getelementptr inbounds [101 x i8], [101 x i8]* %3, i64 0, i64 0
  %27 = call i64 @strlen(i8* %26) #4
  %28 = sub i64 %25, %27
  %29 = icmp ule i64 %23, %28
  br i1 %29, label %30, label %103

30:                                               ; preds = %21
  store i32 0, i32* %9, align 4
  %31 = load i32, i32* %7, align 4
  %32 = icmp ne i32 %31, 0
  br i1 %32, label %33, label %42

33:                                               ; preds = %30
  %34 = load i32, i32* %7, align 4
  %35 = sub nsw i32 %34, 1
  %36 = sext i32 %35 to i64
  %37 = getelementptr inbounds [101 x i8], [101 x i8]* %2, i64 0, i64 %36
  %38 = load i8, i8* %37, align 1
  %39 = sext i8 %38 to i32
  %40 = icmp ne i32 %39, 32
  br i1 %40, label %41, label %42

41:                                               ; preds = %33
  br label %100

42:                                               ; preds = %33, %30
  store i32 0, i32* %8, align 4
  br label %43

43:                                               ; preds = %60, %42
  %44 = load i32, i32* %8, align 4
  %45 = sext i32 %44 to i64
  %46 = getelementptr inbounds [101 x i8], [101 x i8]* %3, i64 0, i64 0
  %47 = call i64 @strlen(i8* %46) #4
  %48 = icmp ult i64 %45, %47
  br i1 %48, label %49, label %63

49:                                               ; preds = %43
  %50 = load i32, i32* %8, align 4
  %51 = load i32, i32* %7, align 4
  %52 = add nsw i32 %50, %51
  %53 = sext i32 %52 to i64
  %54 = getelementptr inbounds [101 x i8], [101 x i8]* %2, i64 0, i64 %53
  %55 = load i8, i8* %54, align 1
  %56 = load i32, i32* %9, align 4
  %57 = add nsw i32 %56, 1
  store i32 %57, i32* %9, align 4
  %58 = sext i32 %56 to i64
  %59 = getelementptr inbounds [101 x i8], [101 x i8]* %5, i64 0, i64 %58
  store i8 %55, i8* %59, align 1
  br label %60

60:                                               ; preds = %49
  %61 = load i32, i32* %8, align 4
  %62 = add nsw i32 %61, 1
  store i32 %62, i32* %8, align 4
  br label %43

63:                                               ; preds = %43
  %64 = getelementptr inbounds [101 x i8], [101 x i8]* %5, i64 0, i64 0
  %65 = getelementptr inbounds [101 x i8], [101 x i8]* %3, i64 0, i64 0
  %66 = call i32 @strcmp(i8* %64, i8* %65) #4
  %67 = icmp eq i32 %66, 0
  br i1 %67, label %68, label %99

68:                                               ; preds = %63
  %69 = load i32, i32* %8, align 4
  %70 = load i32, i32* %7, align 4
  %71 = add nsw i32 %69, %70
  %72 = sext i32 %71 to i64
  %73 = getelementptr inbounds [101 x i8], [101 x i8]* %2, i64 0, i64 %72
  %74 = load i8, i8* %73, align 1
  %75 = sext i8 %74 to i32
  %76 = icmp eq i32 %75, 32
  br i1 %76, label %95, label %77

77:                                               ; preds = %68
  %78 = load i32, i32* %8, align 4
  %79 = load i32, i32* %7, align 4
  %80 = add nsw i32 %78, %79
  %81 = sext i32 %80 to i64
  %82 = getelementptr inbounds [101 x i8], [101 x i8]* %2, i64 0, i64 %81
  %83 = load i8, i8* %82, align 1
  %84 = sext i8 %83 to i32
  %85 = icmp eq i32 %84, 10
  br i1 %85, label %95, label %86

86:                                               ; preds = %77
  %87 = load i32, i32* %8, align 4
  %88 = load i32, i32* %7, align 4
  %89 = add nsw i32 %87, %88
  %90 = sext i32 %89 to i64
  %91 = getelementptr inbounds [101 x i8], [101 x i8]* %2, i64 0, i64 %90
  %92 = load i8, i8* %91, align 1
  %93 = sext i8 %92 to i32
  %94 = icmp eq i32 %93, 0
  br i1 %94, label %95, label %99

95:                                               ; preds = %86, %77, %68
  %96 = load i32, i32* %7, align 4
  %97 = sext i32 %96 to i64
  %98 = getelementptr inbounds [101 x i8], [101 x i8]* %6, i64 0, i64 %97
  store i8 1, i8* %98, align 1
  br label %99

99:                                               ; preds = %95, %86, %63
  br label %100

100:                                              ; preds = %99, %41
  %101 = load i32, i32* %7, align 4
  %102 = add nsw i32 %101, 1
  store i32 %102, i32* %7, align 4
  br label %21

103:                                              ; preds = %21
  store i32 0, i32* %7, align 4
  br label %104

104:                                              ; preds = %157, %103
  %105 = load i32, i32* %7, align 4
  %106 = sext i32 %105 to i64
  %107 = getelementptr inbounds [101 x i8], [101 x i8]* %2, i64 0, i64 0
  %108 = call i64 @strlen(i8* %107) #4
  %109 = icmp ult i64 %106, %108
  br i1 %109, label %110, label %160

110:                                              ; preds = %104
  %111 = load i32, i32* %7, align 4
  %112 = sext i32 %111 to i64
  %113 = getelementptr inbounds [101 x i8], [101 x i8]* %6, i64 0, i64 %112
  %114 = load i8, i8* %113, align 1
  %115 = sext i8 %114 to i32
  %116 = icmp eq i32 %115, 0
  br i1 %116, label %117, label %124

117:                                              ; preds = %110
  %118 = load i32, i32* %7, align 4
  %119 = sext i32 %118 to i64
  %120 = getelementptr inbounds [101 x i8], [101 x i8]* %2, i64 0, i64 %119
  %121 = load i8, i8* %120, align 1
  %122 = sext i8 %121 to i32
  %123 = call i32 (i8*, ...) @printf(i8* getelementptr inbounds ([3 x i8], [3 x i8]* @.str, i64 0, i64 0), i32 %122)
  br label %156

124:                                              ; preds = %110
  %125 = getelementptr inbounds [101 x i8], [101 x i8]* %4, i64 0, i64 0
  %126 = call i32 (i8*, ...) @printf(i8* getelementptr inbounds ([3 x i8], [3 x i8]* @.str.1, i64 0, i64 0), i8* %125)
  br label %127

127:                                              ; preds = %124, %154
  %128 = load i32, i32* %7, align 4
  %129 = sext i32 %128 to i64
  %130 = getelementptr inbounds [101 x i8], [101 x i8]* %2, i64 0, i64 %129
  %131 = load i8, i8* %130, align 1
  %132 = sext i8 %131 to i32
  %133 = icmp eq i32 %132, 32
  br i1 %133, label %148, label %134

134:                                              ; preds = %127
  %135 = load i32, i32* %7, align 4
  %136 = sext i32 %135 to i64
  %137 = getelementptr inbounds [101 x i8], [101 x i8]* %2, i64 0, i64 %136
  %138 = load i8, i8* %137, align 1
  %139 = sext i8 %138 to i32
  %140 = icmp eq i32 %139, 10
  br i1 %140, label %148, label %141

141:                                              ; preds = %134
  %142 = load i32, i32* %7, align 4
  %143 = sext i32 %142 to i64
  %144 = getelementptr inbounds [101 x i8], [101 x i8]* %2, i64 0, i64 %143
  %145 = load i8, i8* %144, align 1
  %146 = sext i8 %145 to i32
  %147 = icmp eq i32 %146, 0
  br i1 %147, label %148, label %151

148:                                              ; preds = %141, %134, %127
  %149 = load i32, i32* %7, align 4
  %150 = add nsw i32 %149, -1
  store i32 %150, i32* %7, align 4
  br label %155

151:                                              ; preds = %141
  %152 = load i32, i32* %7, align 4
  %153 = add nsw i32 %152, 1
  store i32 %153, i32* %7, align 4
  br label %154

154:                                              ; preds = %151
  br label %127

155:                                              ; preds = %148
  br label %156

156:                                              ; preds = %155, %117
  br label %157

157:                                              ; preds = %156
  %158 = load i32, i32* %7, align 4
  %159 = add nsw i32 %158, 1
  store i32 %159, i32* %7, align 4
  br label %104

160:                                              ; preds = %104
  ret i32 0
}

; Function Attrs: argmemonly nounwind willreturn
declare void @llvm.memset.p0i8.i64(i8* nocapture writeonly, i8, i64, i1 immarg) #1

declare dso_local i32 @gets(...) #2

; Function Attrs: nounwind readonly
declare dso_local i64 @strlen(i8*) #3

; Function Attrs: nounwind readonly
declare dso_local i32 @strcmp(i8*, i8*) #3

declare dso_local i32 @printf(i8*, ...) #2


!llvm.module.flags = !{!0}
!llvm.ident = !{!1}

!0 = !{i32 1, !"wchar_size", i32 4}
!1 = !{!"clang version 10.0.0-4ubuntu1 "}
